target datalayout = "e-m:e-p270:32:32-p271:32:32-p272:64:64-i64:64-i128:128-f80:128-n8:16:32:64-S128"
target triple = "x86_64-unknown-linux-gnu"

%"class.icu_75::UObject" = type { ptr }
%"class.icu_75::Normalizer2Impl" = type { %"class.icu_75::UObject", i16, i16, i16, i16, i16, i16, i16, i16, i16, i16, i16, i16, ptr, ptr, ptr, ptr, %"struct.icu_75::UInitOnce", ptr }
%"struct.icu_75::UInitOnce" = type { %"struct.std::atomic", i32 }
%"struct.std::atomic" = type { %"struct.std::__atomic_base" }
%"struct.std::__atomic_base" = type { i32 }
%struct.UCPTrie = type { ptr, %union.UCPTrieData, i32, i32, i32, i16, i8, i8, i32, i16, i16, i32, i32 }
%union.UCPTrieData = type { ptr }

; Function Attrs: mustprogress nounwind uwtable
define linkonce_odr noundef signext i8 @_ZNK6icu_7515Normalizer2Impl17isAlgorithmicNoNoEt(ptr noundef nonnull align 8 dereferenceable(80) %this, i16 noundef zeroext %norm16) #2 comdat align 2 {
entry:
  %this.addr = alloca ptr, align 8
  %norm16.addr = alloca i16, align 2
  store ptr %this, ptr %this.addr, align 8
  store i16 %norm16, ptr %norm16.addr, align 2
  %this1 = load ptr, ptr %this.addr, align 8
  %limitNoNo = getelementptr inbounds %"class.icu_75::Normalizer2Impl", ptr %this1, i32 0, i32 10
  %0 = load i16, ptr %limitNoNo, align 2
  %conv = zext i16 %0 to i32
  %1 = load i16, ptr %norm16.addr, align 2
  %conv2 = zext i16 %1 to i32
  %cmp = icmp sle i32 %conv, %conv2
  br i1 %cmp, label %land.rhs, label %land.end

land.rhs:                                         ; preds = %entry
  %2 = load i16, ptr %norm16.addr, align 2
  %conv3 = zext i16 %2 to i32
  %minMaybeYes = getelementptr inbounds %"class.icu_75::Normalizer2Impl", ptr %this1, i32 0, i32 12
  %3 = load i16, ptr %minMaybeYes, align 2
  %conv4 = zext i16 %3 to i32
  %cmp5 = icmp slt i32 %conv3, %conv4
  br label %land.end

land.end:                                         ; preds = %land.rhs, %entry
  %4 = phi i1 [ false, %entry ], [ %cmp5, %land.rhs ]
  %conv6 = zext i1 %4 to i8
  ret i8 %conv6
}

; Function Attrs: mustprogress nounwind uwtable
define linkonce_odr noundef ptr @_ZNK6icu_7515Normalizer2Impl10getMappingEt(ptr noundef nonnull align 8 dereferenceable(80) %this, i16 noundef zeroext %norm16) #2 comdat align 2 {
entry:
  %this.addr = alloca ptr, align 8
  %norm16.addr = alloca i16, align 2
  store ptr %this, ptr %this.addr, align 8
  store i16 %norm16, ptr %norm16.addr, align 2
  %this1 = load ptr, ptr %this.addr, align 8
  %extraData = getelementptr inbounds %"class.icu_75::Normalizer2Impl", ptr %this1, i32 0, i32 15
  %0 = load ptr, ptr %extraData, align 8
  %1 = load i16, ptr %norm16.addr, align 2
  %conv = zext i16 %1 to i32
  %shr = ashr i32 %conv, 1
  %idx.ext = sext i32 %shr to i64
  %add.ptr = getelementptr inbounds i16, ptr %0, i64 %idx.ext
  ret ptr %add.ptr
}

; Function Attrs: mustprogress nounwind uwtable
define linkonce_odr noundef signext i8 @_ZNK6icu_7515Normalizer2Impl21isDecompNoAlgorithmicEt(ptr noundef nonnull align 8 dereferenceable(80) %this, i16 noundef zeroext %norm16) #2 comdat align 2 {
entry:
  %this.addr = alloca ptr, align 8
  %norm16.addr = alloca i16, align 2
  store ptr %this, ptr %this.addr, align 8
  store i16 %norm16, ptr %norm16.addr, align 2
  %this1 = load ptr, ptr %this.addr, align 8
  %0 = load i16, ptr %norm16.addr, align 2
  %conv = zext i16 %0 to i32
  %limitNoNo = getelementptr inbounds %"class.icu_75::Normalizer2Impl", ptr %this1, i32 0, i32 10
  %1 = load i16, ptr %limitNoNo, align 2
  %conv2 = zext i16 %1 to i32
  %cmp = icmp sge i32 %conv, %conv2
  %conv3 = zext i1 %cmp to i8
  ret i8 %conv3
}

; Function Attrs: mustprogress nounwind uwtable
define linkonce_odr noundef signext i8 @_ZN6icu_7515Normalizer2Impl7isInertEt(i16 noundef zeroext %norm16) #2 comdat align 2 {
entry:
  %norm16.addr = alloca i16, align 2
  store i16 %norm16, ptr %norm16.addr, align 2
  %0 = load i16, ptr %norm16.addr, align 2
  %conv = zext i16 %0 to i32
  %cmp = icmp eq i32 %conv, 1
  %conv1 = zext i1 %cmp to i8
  ret i8 %conv1
}

; Function Attrs: mustprogress nounwind uwtable
define linkonce_odr noundef signext i8 @_ZNK6icu_7515Normalizer2Impl27norm16HasCompBoundaryBeforeEt(ptr noundef nonnull align 8 dereferenceable(80) %this, i16 noundef zeroext %norm16) #2 comdat align 2 {
entry:
  %this.addr = alloca ptr, align 8
  %norm16.addr = alloca i16, align 2
  store ptr %this, ptr %this.addr, align 8
  store i16 %norm16, ptr %norm16.addr, align 2
  %this1 = load ptr, ptr %this.addr, align 8
  %0 = load i16, ptr %norm16.addr, align 2
  %conv = zext i16 %0 to i32
  %minNoNoCompNoMaybeCC = getelementptr inbounds %"class.icu_75::Normalizer2Impl", ptr %this1, i32 0, i32 8
  %1 = load i16, ptr %minNoNoCompNoMaybeCC, align 2
  %conv2 = zext i16 %1 to i32
  %cmp = icmp slt i32 %conv, %conv2
  br i1 %cmp, label %lor.end, label %lor.rhs

lor.rhs:                                          ; preds = %entry
  %2 = load i16, ptr %norm16.addr, align 2
  %call = call noundef signext i8 @_ZNK6icu_7515Normalizer2Impl17isAlgorithmicNoNoEt(ptr noundef nonnull align 8 dereferenceable(80) %this1, i16 noundef zeroext %2)
  %tobool = icmp ne i8 %call, 0
  br label %lor.end

lor.end:                                          ; preds = %lor.rhs, %entry
  %3 = phi i1 [ true, %entry ], [ %tobool, %lor.rhs ]
  %conv3 = zext i1 %3 to i8
  ret i8 %conv3
}

; Function Attrs: mustprogress uwtable
define linkonce_odr noundef signext i8 @_ZNK6icu_7515Normalizer2Impl31isTrailCC01ForCompBoundaryAfterEt(ptr noundef nonnull align 8 dereferenceable(80) %this, i16 noundef zeroext %norm16) #0 comdat align 2 {
entry:
  %this.addr = alloca ptr, align 8
  %norm16.addr = alloca i16, align 2
  store ptr %this, ptr %this.addr, align 8
  store i16 %norm16, ptr %norm16.addr, align 2
  %this1 = load ptr, ptr %this.addr, align 8
  %0 = load i16, ptr %norm16.addr, align 2
  %call = call noundef signext i8 @_ZN6icu_7515Normalizer2Impl7isInertEt(i16 noundef zeroext %0)
  %tobool = icmp ne i8 %call, 0
  br i1 %tobool, label %lor.end, label %lor.rhs

lor.rhs:                                          ; preds = %entry
  %1 = load i16, ptr %norm16.addr, align 2
  %call2 = call noundef signext i8 @_ZNK6icu_7515Normalizer2Impl21isDecompNoAlgorithmicEt(ptr noundef nonnull align 8 dereferenceable(80) %this1, i16 noundef zeroext %1)
  %tobool3 = icmp ne i8 %call2, 0
  br i1 %tobool3, label %cond.true, label %cond.false

cond.true:                                        ; preds = %lor.rhs
  %2 = load i16, ptr %norm16.addr, align 2
  %conv = zext i16 %2 to i32
  %and = and i32 %conv, 6
  %cmp = icmp sle i32 %and, 2
  br label %cond.end

cond.false:                                       ; preds = %lor.rhs
  %3 = load i16, ptr %norm16.addr, align 2
  %call4 = call noundef ptr @_ZNK6icu_7515Normalizer2Impl10getMappingEt(ptr noundef nonnull align 8 dereferenceable(80) %this1, i16 noundef zeroext %3)
  %4 = load i16, ptr %call4, align 2
  %conv5 = zext i16 %4 to i32
  %cmp6 = icmp sle i32 %conv5, 511
  br label %cond.end

cond.end:                                         ; preds = %cond.false, %cond.true
  %cond = phi i1 [ %cmp, %cond.true ], [ %cmp6, %cond.false ]
  br label %lor.end

lor.end:                                          ; preds = %cond.end, %entry
  %5 = phi i1 [ true, %entry ], [ %cond, %cond.end ]
  %conv7 = zext i1 %5 to i8
  ret i8 %conv7
}

; Function Attrs: mustprogress nounwind uwtable
define linkonce_odr noundef signext i8 @_ZNK6icu_7515Normalizer2Impl21hasCompBoundaryBeforeEit(ptr noundef nonnull align 8 dereferenceable(80) %this, i32 noundef %c, i16 noundef zeroext %norm16) #2 comdat align 2 {
entry:
  %this.addr = alloca ptr, align 8
  %c.addr = alloca i32, align 4
  %norm16.addr = alloca i16, align 2
  store ptr %this, ptr %this.addr, align 8
  store i32 %c, ptr %c.addr, align 4
  store i16 %norm16, ptr %norm16.addr, align 2
  %this1 = load ptr, ptr %this.addr, align 8
  %0 = load i32, ptr %c.addr, align 4
  %minCompNoMaybeCP = getelementptr inbounds %"class.icu_75::Normalizer2Impl", ptr %this1, i32 0, i32 2
  %1 = load i16, ptr %minCompNoMaybeCP, align 2
  %conv = zext i16 %1 to i32
  %cmp = icmp slt i32 %0, %conv
  br i1 %cmp, label %lor.end, label %lor.rhs

lor.rhs:                                          ; preds = %entry
  %2 = load i16, ptr %norm16.addr, align 2
  %call = call noundef signext i8 @_ZNK6icu_7515Normalizer2Impl27norm16HasCompBoundaryBeforeEt(ptr noundef nonnull align 8 dereferenceable(80) %this1, i16 noundef zeroext %2)
  %tobool = icmp ne i8 %call, 0
  br label %lor.end

lor.end:                                          ; preds = %lor.rhs, %entry
  %3 = phi i1 [ true, %entry ], [ %tobool, %lor.rhs ]
  %conv2 = zext i1 %3 to i8
  ret i8 %conv2
}

; Function Attrs: mustprogress uwtable
define linkonce_odr noundef signext i8 @_ZNK6icu_7515Normalizer2Impl26norm16HasCompBoundaryAfterEta(ptr noundef nonnull align 8 dereferenceable(80) %this, i16 noundef zeroext %norm16, i8 noundef signext %onlyContiguous) #0 comdat align 2 {
entry:
  %this.addr = alloca ptr, align 8
  %norm16.addr = alloca i16, align 2
  %onlyContiguous.addr = alloca i8, align 1
  store ptr %this, ptr %this.addr, align 8
  store i16 %norm16, ptr %norm16.addr, align 2
  store i8 %onlyContiguous, ptr %onlyContiguous.addr, align 1
  %this1 = load ptr, ptr %this.addr, align 8
  %0 = load i16, ptr %norm16.addr, align 2
  %conv = zext i16 %0 to i32
  %and = and i32 %conv, 1
  %cmp = icmp ne i32 %and, 0
  br i1 %cmp, label %land.rhs, label %land.end

land.rhs:                                         ; preds = %entry
  %1 = load i8, ptr %onlyContiguous.addr, align 1
  %tobool = icmp ne i8 %1, 0
  br i1 %tobool, label %lor.rhs, label %lor.end

lor.rhs:                                          ; preds = %land.rhs
  %2 = load i16, ptr %norm16.addr, align 2
  %call = call noundef signext i8 @_ZNK6icu_7515Normalizer2Impl31isTrailCC01ForCompBoundaryAfterEt(ptr noundef nonnull align 8 dereferenceable(80) %this1, i16 noundef zeroext %2)
  %tobool2 = icmp ne i8 %call, 0
  br label %lor.end

lor.end:                                          ; preds = %lor.rhs, %land.rhs
  %3 = phi i1 [ true, %land.rhs ], [ %tobool2, %lor.rhs ]
  br label %land.end

land.end:                                         ; preds = %lor.end, %entry
  %4 = phi i1 [ false, %entry ], [ %3, %lor.end ]
  %conv3 = zext i1 %4 to i8
  ret i8 %conv3
}

; Function Attrs: mustprogress uwtable
define noundef ptr @_ZNK6icu_7515Normalizer2Impl24findPreviousCompBoundaryEPKDsS2_a(ptr noundef nonnull align 8 dereferenceable(80) %this, ptr noundef %start, ptr noundef %p, i8 noundef signext %onlyContiguous) #0 align 2 {
entry:
  %retval = alloca ptr, align 8
  %this.addr = alloca ptr, align 8
  %start.addr = alloca ptr, align 8
  %p.addr = alloca ptr, align 8
  %onlyContiguous.addr = alloca i8, align 1
  %codePointLimit = alloca ptr, align 8
  %c = alloca i32, align 4
  %norm16 = alloca i16, align 2
  %__index = alloca i32, align 4
  %__c2 = alloca i16, align 2
  store ptr %this, ptr %this.addr, align 8
  store ptr %start, ptr %start.addr, align 8
  store ptr %p, ptr %p.addr, align 8
  store i8 %onlyContiguous, ptr %onlyContiguous.addr, align 1
  %this1 = load ptr, ptr %this.addr, align 8
  br label %while.cond

while.cond:                                       ; preds = %if.end35, %entry
  %0 = load ptr, ptr %p.addr, align 8
  %1 = load ptr, ptr %start.addr, align 8
  %cmp = icmp ne ptr %0, %1
  br i1 %cmp, label %while.body, label %while.end

while.body:                                       ; preds = %while.cond
  %2 = load ptr, ptr %p.addr, align 8
  store ptr %2, ptr %codePointLimit, align 8
  br label %do.body

do.body:                                          ; preds = %while.body
  %3 = load ptr, ptr %p.addr, align 8
  %incdec.ptr = getelementptr inbounds i16, ptr %3, i32 -1
  store ptr %incdec.ptr, ptr %p.addr, align 8
  %4 = load i16, ptr %incdec.ptr, align 2
  %conv = zext i16 %4 to i32
  store i32 %conv, ptr %c, align 4
  %5 = load i32, ptr %c, align 4
  %and = and i32 %5, -2048
  %cmp2 = icmp eq i32 %and, 55296
  br i1 %cmp2, label %if.else, label %if.then

if.then:                                          ; preds = %do.body
  %normTrie = getelementptr inbounds %"class.icu_75::Normalizer2Impl", ptr %this1, i32 0, i32 13
  %6 = load ptr, ptr %normTrie, align 8
  %index = getelementptr inbounds %struct.UCPTrie, ptr %6, i32 0, i32 0
  %7 = load ptr, ptr %index, align 8
  %8 = load i32, ptr %c, align 4
  %shr = ashr i32 %8, 6
  %idxprom = sext i32 %shr to i64
  %arrayidx = getelementptr inbounds i16, ptr %7, i64 %idxprom
  %9 = load i16, ptr %arrayidx, align 2
  %conv3 = zext i16 %9 to i32
  %10 = load i32, ptr %c, align 4
  %and4 = and i32 %10, 63
  %add = add nsw i32 %conv3, %and4
  store i32 %add, ptr %__index, align 4
  br label %if.end25

if.else:                                          ; preds = %do.body
  %11 = load i32, ptr %c, align 4
  %and5 = and i32 %11, 1024
  %cmp6 = icmp ne i32 %and5, 0
  br i1 %cmp6, label %land.lhs.true, label %if.else21

land.lhs.true:                                    ; preds = %if.else
  %12 = load ptr, ptr %p.addr, align 8
  %13 = load ptr, ptr %start.addr, align 8
  %cmp7 = icmp ne ptr %12, %13
  br i1 %cmp7, label %land.lhs.true8, label %if.else21

land.lhs.true8:                                   ; preds = %land.lhs.true
  %14 = load ptr, ptr %p.addr, align 8
  %add.ptr = getelementptr inbounds i16, ptr %14, i64 -1
  %15 = load i16, ptr %add.ptr, align 2
  store i16 %15, ptr %__c2, align 2
  %conv9 = zext i16 %15 to i32
  %and10 = and i32 %conv9, -1024
  %cmp11 = icmp eq i32 %and10, 55296
  br i1 %cmp11, label %if.then12, label %if.else21

if.then12:                                        ; preds = %land.lhs.true8
  %16 = load ptr, ptr %p.addr, align 8
  %incdec.ptr13 = getelementptr inbounds i16, ptr %16, i32 -1
  store ptr %incdec.ptr13, ptr %p.addr, align 8
  %17 = load i16, ptr %__c2, align 2
  %conv14 = zext i16 %17 to i32
  %shl = shl i32 %conv14, 10
  %18 = load i32, ptr %c, align 4
  %add15 = add nsw i32 %shl, %18
  %sub = sub nsw i32 %add15, 56613888
  store i32 %sub, ptr %c, align 4
  %19 = load i32, ptr %c, align 4
  %normTrie16 = getelementptr inbounds %"class.icu_75::Normalizer2Impl", ptr %this1, i32 0, i32 13
  %20 = load ptr, ptr %normTrie16, align 8
  %highStart = getelementptr inbounds %struct.UCPTrie, ptr %20, i32 0, i32 4
  %21 = load i32, ptr %highStart, align 8
  %cmp17 = icmp sge i32 %19, %21
  br i1 %cmp17, label %cond.true, label %cond.false

cond.true:                                        ; preds = %if.then12
  %normTrie18 = getelementptr inbounds %"class.icu_75::Normalizer2Impl", ptr %this1, i32 0, i32 13
  %22 = load ptr, ptr %normTrie18, align 8
  %dataLength = getelementptr inbounds %struct.UCPTrie, ptr %22, i32 0, i32 3
  %23 = load i32, ptr %dataLength, align 4
  %sub19 = sub nsw i32 %23, 2
  br label %cond.end

cond.false:                                       ; preds = %if.then12
  %normTrie20 = getelementptr inbounds %"class.icu_75::Normalizer2Impl", ptr %this1, i32 0, i32 13
  %24 = load ptr, ptr %normTrie20, align 8
  %25 = load i32, ptr %c, align 4
  %call = call i32 @ucptrie_internalSmallIndex_75(ptr noundef %24, i32 noundef %25)
  br label %cond.end

cond.end:                                         ; preds = %cond.false, %cond.true
  %cond = phi i32 [ %sub19, %cond.true ], [ %call, %cond.false ]
  store i32 %cond, ptr %__index, align 4
  br label %if.end

if.else21:                                        ; preds = %land.lhs.true8, %land.lhs.true, %if.else
  %normTrie22 = getelementptr inbounds %"class.icu_75::Normalizer2Impl", ptr %this1, i32 0, i32 13
  %26 = load ptr, ptr %normTrie22, align 8
  %dataLength23 = getelementptr inbounds %struct.UCPTrie, ptr %26, i32 0, i32 3
  %27 = load i32, ptr %dataLength23, align 4
  %sub24 = sub nsw i32 %27, 1
  store i32 %sub24, ptr %__index, align 4
  br label %if.end

if.end:                                           ; preds = %if.else21, %cond.end
  br label %if.end25

if.end25:                                         ; preds = %if.end, %if.then
  %normTrie26 = getelementptr inbounds %"class.icu_75::Normalizer2Impl", ptr %this1, i32 0, i32 13
  %28 = load ptr, ptr %normTrie26, align 8
  %data = getelementptr inbounds %struct.UCPTrie, ptr %28, i32 0, i32 1
  %29 = load ptr, ptr %data, align 8
  %30 = load i32, ptr %__index, align 4
  %idxprom27 = sext i32 %30 to i64
  %arrayidx28 = getelementptr inbounds i16, ptr %29, i64 %idxprom27
  %31 = load i16, ptr %arrayidx28, align 2
  store i16 %31, ptr %norm16, align 2
  br label %do.end

do.end:                                           ; preds = %if.end25
  %32 = load i16, ptr %norm16, align 2
  %33 = load i8, ptr %onlyContiguous.addr, align 1
  %call29 = call noundef signext i8 @_ZNK6icu_7515Normalizer2Impl26norm16HasCompBoundaryAfterEta(ptr noundef nonnull align 8 dereferenceable(80) %this1, i16 noundef zeroext %32, i8 noundef signext %33)
  %tobool = icmp ne i8 %call29, 0
  br i1 %tobool, label %if.then30, label %if.end31

if.then30:                                        ; preds = %do.end
  %34 = load ptr, ptr %codePointLimit, align 8
  store ptr %34, ptr %retval, align 8
  br label %return

if.end31:                                         ; preds = %do.end
  %35 = load i32, ptr %c, align 4
  %36 = load i16, ptr %norm16, align 2
  %call32 = call noundef signext i8 @_ZNK6icu_7515Normalizer2Impl21hasCompBoundaryBeforeEit(ptr noundef nonnull align 8 dereferenceable(80) %this1, i32 noundef %35, i16 noundef zeroext %36)
  %tobool33 = icmp ne i8 %call32, 0
  br i1 %tobool33, label %if.then34, label %if.end35

if.then34:                                        ; preds = %if.end31
  %37 = load ptr, ptr %p.addr, align 8
  store ptr %37, ptr %retval, align 8
  br label %return

if.end35:                                         ; preds = %if.end31
  br label %while.cond, !llvm.loop !39

while.end:                                        ; preds = %while.cond
  %38 = load ptr, ptr %p.addr, align 8
  store ptr %38, ptr %retval, align 8
  br label %return

return:                                           ; preds = %while.end, %if.then34, %if.then30
  %39 = load ptr, ptr %retval, align 8
  ret ptr %39
}