; Function Attrs: mustprogress uwtable
define noundef ptr @_ZNK6icu_7515Normalizer2Impl24findPreviousCompBoundaryEPKDsS2_a(ptr nocapture noundef nonnull readonly align 8 dereferenceable(80) %this, ptr noundef readnone %start, ptr noundef readonly %p, i8 noundef signext %onlyContiguous) local_unnamed_addr #0 align 2 {
entry:
  %normTrie = getelementptr inbounds i8, ptr %this, i64 32
  %tobool.not.i = icmp eq i8 %onlyContiguous, 0
  %limitNoNo.i.i.i = getelementptr inbounds i8, ptr %this, i64 26
  %extraData.i.i.i = getelementptr inbounds i8, ptr %this, i64 48
  %minCompNoMaybeCP.i = getelementptr inbounds i8, ptr %this, i64 10
  %minNoNoCompNoMaybeCC.i.i = getelementptr inbounds i8, ptr %this, i64 22
  %minMaybeYes.i.i.i = getelementptr inbounds i8, ptr %this, i64 30
  br label %while.cond

while.cond:                                       ; preds = %_ZNK6icu_7515Normalizer2Impl21hasCompBoundaryBeforeEit.exit, %entry
  %p.addr.0 = phi ptr [ %p, %entry ], [ %p.addr.1, %_ZNK6icu_7515Normalizer2Impl21hasCompBoundaryBeforeEit.exit ]
  %cmp.not = icmp eq ptr %p.addr.0, %start
  br i1 %cmp.not, label %return, label %while.body

while.body:                                       ; preds = %while.cond
  %incdec.ptr = getelementptr inbounds i8, ptr %p.addr.0, i64 -2
  %0 = load i16, ptr %incdec.ptr, align 2
  %conv = zext i16 %0 to i32
  %and = and i32 %conv, 63488
  %cmp2 = icmp eq i32 %and, 55296
  br i1 %cmp2, label %if.else, label %if.then

if.then:                                          ; preds = %while.body
  %1 = load ptr, ptr %normTrie, align 8
  %2 = load ptr, ptr %1, align 8
  %shr = lshr i32 %conv, 6
  %idxprom = zext nneg i32 %shr to i64
  %arrayidx = getelementptr inbounds i16, ptr %2, i64 %idxprom
  %3 = load i16, ptr %arrayidx, align 2
  %conv3 = zext i16 %3 to i32
  %and4 = and i32 %conv, 63
  %add = add nuw nsw i32 %and4, %conv3
  br label %if.end25

if.else:                                          ; preds = %while.body
  %and5 = and i32 %conv, 1024
  %cmp6.not = icmp eq i32 %and5, 0
  %cmp7.not = icmp eq ptr %incdec.ptr, %start
  %or.cond = or i1 %cmp7.not, %cmp6.not
  br i1 %or.cond, label %if.else.if.else21_crit_edge, label %land.lhs.true8

if.else.if.else21_crit_edge:                      ; preds = %if.else
  %.pre = load ptr, ptr %normTrie, align 8
  br label %if.else21

land.lhs.true8:                                   ; preds = %if.else
  %add.ptr = getelementptr inbounds i8, ptr %p.addr.0, i64 -4
  %4 = load i16, ptr %add.ptr, align 2
  %conv9 = zext i16 %4 to i32
  %and10 = and i32 %conv9, 64512
  %cmp11 = icmp eq i32 %and10, 55296
  %.pre31 = load ptr, ptr %normTrie, align 8
  br i1 %cmp11, label %if.then12, label %if.else21

if.then12:                                        ; preds = %land.lhs.true8
  %shl = shl nuw nsw i32 %conv9, 10
  %add15 = add nuw nsw i32 %conv, -56613888
  %sub = add nsw i32 %add15, %shl
  %highStart = getelementptr inbounds i8, ptr %.pre31, i64 24
  %5 = load i32, ptr %highStart, align 8
  %cmp17.not = icmp slt i32 %sub, %5
  br i1 %cmp17.not, label %cond.false, label %cond.true

cond.true:                                        ; preds = %if.then12
  %dataLength = getelementptr inbounds i8, ptr %.pre31, i64 20
  %6 = load i32, ptr %dataLength, align 4
  %sub19 = add nsw i32 %6, -2
  br label %if.end25

cond.false:                                       ; preds = %if.then12
  %call = tail call i32 @ucptrie_internalSmallIndex_75(ptr noundef nonnull %.pre31, i32 noundef %sub)
  %.pre32 = load ptr, ptr %normTrie, align 8
  br label %if.end25

if.else21:                                        ; preds = %if.else.if.else21_crit_edge, %land.lhs.true8
  %7 = phi ptr [ %.pre, %if.else.if.else21_crit_edge ], [ %.pre31, %land.lhs.true8 ]
  %dataLength23 = getelementptr inbounds i8, ptr %7, i64 20
  %8 = load i32, ptr %dataLength23, align 4
  %sub24 = add nsw i32 %8, -1
  br label %if.end25

if.end25:                                         ; preds = %cond.true, %cond.false, %if.else21, %if.then
  %9 = phi ptr [ %7, %if.else21 ], [ %1, %if.then ], [ %.pre32, %cond.false ], [ %.pre31, %cond.true ]
  %c.0 = phi i32 [ %conv, %if.else21 ], [ %conv, %if.then ], [ %sub, %cond.false ], [ %sub, %cond.true ]
  %p.addr.1 = phi ptr [ %incdec.ptr, %if.else21 ], [ %incdec.ptr, %if.then ], [ %add.ptr, %cond.false ], [ %add.ptr, %cond.true ]
  %__index.0 = phi i32 [ %sub24, %if.else21 ], [ %add, %if.then ], [ %call, %cond.false ], [ %sub19, %cond.true ]
  %data = getelementptr inbounds i8, ptr %9, i64 8
  %10 = load ptr, ptr %data, align 8
  %idxprom27 = sext i32 %__index.0 to i64
  %arrayidx28 = getelementptr inbounds i16, ptr %10, i64 %idxprom27
  %11 = load i16, ptr %arrayidx28, align 2
  %12 = and i16 %11, 1
  %cmp.not.i = icmp eq i16 %12, 0
  br i1 %cmp.not.i, label %if.end31, label %land.rhs.i

land.rhs.i:                                       ; preds = %if.end25
  %cmp.i.not.i.i = icmp eq i16 %11, 1
  %or.cond30 = or i1 %tobool.not.i, %cmp.i.not.i.i
  br i1 %or.cond30, label %return, label %lor.rhs.i.i

lor.rhs.i.i:                                      ; preds = %land.rhs.i
  %13 = load i16, ptr %limitNoNo.i.i.i, align 2
  %cmp.i4.not.i.i = icmp ugt i16 %13, %11
  br i1 %cmp.i4.not.i.i, label %_ZNK6icu_7515Normalizer2Impl26norm16HasCompBoundaryAfterEta.exit, label %cond.true.i.i

cond.true.i.i:                                    ; preds = %lor.rhs.i.i
  %14 = and i16 %11, 6
  %cmp.i.i = icmp ult i16 %14, 3
  br i1 %cmp.i.i, label %return, label %if.end31

_ZNK6icu_7515Normalizer2Impl26norm16HasCompBoundaryAfterEta.exit: ; preds = %lor.rhs.i.i
  %15 = load ptr, ptr %extraData.i.i.i, align 8
  %16 = lshr i16 %11, 1
  %idx.ext.i.i.i = zext nneg i16 %16 to i64
  %add.ptr.i.i.i = getelementptr inbounds i16, ptr %15, i64 %idx.ext.i.i.i
  %17 = load i16, ptr %add.ptr.i.i.i, align 2
  %cmp6.i.i = icmp ult i16 %17, 512
  br i1 %cmp6.i.i, label %return, label %if.end31

if.end31:                                         ; preds = %cond.true.i.i, %if.end25, %_ZNK6icu_7515Normalizer2Impl26norm16HasCompBoundaryAfterEta.exit
  %18 = load i16, ptr %minCompNoMaybeCP.i, align 2
  %conv.i = zext i16 %18 to i32
  %cmp.i = icmp ult i32 %c.0, %conv.i
  %19 = load i16, ptr %minNoNoCompNoMaybeCC.i.i, align 2
  %cmp.i.i17 = icmp ugt i16 %19, %11
  %or.cond.i = select i1 %cmp.i, i1 true, i1 %cmp.i.i17
  br i1 %or.cond.i, label %return, label %_ZNK6icu_7515Normalizer2Impl21hasCompBoundaryBeforeEit.exit

_ZNK6icu_7515Normalizer2Impl21hasCompBoundaryBeforeEit.exit: ; preds = %if.end31
  %20 = load i16, ptr %limitNoNo.i.i.i, align 2
  %cmp.not.i.i.i = icmp ugt i16 %20, %11
  %21 = load i16, ptr %minMaybeYes.i.i.i, align 2
  %cmp5.i.i.i = icmp ule i16 %21, %11
  %narrow.i.i.i.not = select i1 %cmp.not.i.i.i, i1 true, i1 %cmp5.i.i.i
  br i1 %narrow.i.i.i.not, label %while.cond, label %return, !llvm.loop !39

return:                                           ; preds = %cond.true.i.i, %if.end31, %land.rhs.i, %while.cond, %_ZNK6icu_7515Normalizer2Impl21hasCompBoundaryBeforeEit.exit, %_ZNK6icu_7515Normalizer2Impl26norm16HasCompBoundaryAfterEta.exit
  %retval.0 = phi ptr [ %p.addr.0, %_ZNK6icu_7515Normalizer2Impl26norm16HasCompBoundaryAfterEta.exit ], [ %p.addr.1, %_ZNK6icu_7515Normalizer2Impl21hasCompBoundaryBeforeEit.exit ], [ %start, %while.cond ], [ %p.addr.0, %land.rhs.i ], [ %p.addr.1, %if.end31 ], [ %p.addr.0, %cond.true.i.i ]
  ret ptr %retval.0
}